target datalayout = "e-m:e-p270:32:32-p271:32:32-p272:64:64-i64:64-i128:128-f80:128-n8:16:32:64-S128"
target triple = "x86_64-pc-linux-gnu"

%struct.mi_heap_s = type { ptr, ptr, i64, i32, i64, [2 x i64], %struct.mi_random_cxt_s, i64, i64, i64, ptr, i8, i8, [129 x ptr], [75 x %struct.mi_page_queue_s] }
%struct.mi_random_cxt_s = type { [16 x i32], [16 x i32], i32, i8 }
%struct.mi_page_queue_s = type { ptr, ptr, i64 }
%struct.mi_page_s = type { i32, i32, i8, i16, i16, %union.mi_page_flags_s, i8, ptr, ptr, i16, i8, i8, i64, ptr, i64, i64, ptr, ptr, [1 x ptr] }
%union.mi_page_flags_s = type { i8 }
%struct.mi_block_s = type { i64 }
%struct.mi_tld_s = type { i64, i8, ptr, ptr, %struct.mi_segments_tld_s, %struct.mi_stats_s }
%struct.mi_segments_tld_s = type { [36 x %struct.mi_span_queue_s], i64, i64, i64, i64, i64, ptr, ptr }
%struct.mi_span_queue_s = type { ptr, ptr, i64 }
%struct.mi_stats_s = type { %struct.mi_stat_count_s, %struct.mi_stat_count_s, %struct.mi_stat_count_s, %struct.mi_stat_count_s, %struct.mi_stat_count_s, %struct.mi_stat_count_s, %struct.mi_stat_count_s, %struct.mi_stat_count_s, %struct.mi_stat_count_s, %struct.mi_stat_count_s, %struct.mi_stat_count_s, %struct.mi_stat_count_s, %struct.mi_stat_count_s, %struct.mi_stat_count_s, %struct.mi_stat_count_s, %struct.mi_stat_counter_s, %struct.mi_stat_counter_s, %struct.mi_stat_counter_s, %struct.mi_stat_counter_s, %struct.mi_stat_counter_s, %struct.mi_stat_counter_s, %struct.mi_stat_counter_s, %struct.mi_stat_counter_s, %struct.mi_stat_counter_s, %struct.mi_stat_counter_s, %struct.mi_stat_counter_s, %struct.mi_stat_counter_s, %struct.mi_stat_counter_s, %struct.mi_stat_counter_s }
%struct.mi_stat_count_s = type { i64, i64, i64, i64 }
%struct.mi_stat_counter_s = type { i64, i64 }

@_mi_heap_empty = external hidden constant %struct.mi_heap_s, align 8
@deferred_free = internal global ptr null, align 8
@deferred_arg = internal global ptr null, align 8
@.str = private unnamed_addr constant [39 x i8] c"unable to allocate memory (%zu bytes)\0A\00", align 1

; Function Attrs: inlinehint nounwind uwtable
define internal void @_mi_memzero(ptr noundef %0, i64 noundef %1) #1 {
  %3 = alloca ptr, align 8
  %4 = alloca i64, align 8
  store ptr %0, ptr %3, align 8, !tbaa !57
  store i64 %1, ptr %4, align 8, !tbaa !3
  %5 = load ptr, ptr %3, align 8, !tbaa !57
  %6 = load i64, ptr %4, align 8, !tbaa !3
  call void @llvm.memset.p0.i64(ptr align 1 %5, i8 0, i64 %6, i1 false)
  ret void
}

; Function Attrs: inlinehint nounwind uwtable
define internal i64 @mi_page_block_size(ptr noundef %0) #1 {
  %2 = alloca ptr, align 8
  store ptr %0, ptr %2, align 8, !tbaa !17
  %3 = load ptr, ptr %2, align 8, !tbaa !17
  %4 = getelementptr inbounds nuw %struct.mi_page_s, ptr %3, i32 0, i32 12
  %5 = load i64, ptr %4, align 8, !tbaa !48
  ret i64 %5
}

; Function Attrs: inlinehint nounwind uwtable
define internal void @mi_block_set_nextx(ptr noundef %0, ptr noundef %1, ptr noundef %2, ptr noundef %3) #1 {
  %5 = alloca ptr, align 8
  %6 = alloca ptr, align 8
  %7 = alloca ptr, align 8
  %8 = alloca ptr, align 8
  store ptr %0, ptr %5, align 8, !tbaa !57
  store ptr %1, ptr %6, align 8, !tbaa !42
  store ptr %2, ptr %7, align 8, !tbaa !42
  store ptr %3, ptr %8, align 8, !tbaa !58
  %9 = load ptr, ptr %7, align 8, !tbaa !42
  %10 = ptrtoint ptr %9 to i64
  %11 = load ptr, ptr %6, align 8, !tbaa !42
  %12 = getelementptr inbounds nuw %struct.mi_block_s, ptr %11, i32 0, i32 0
  store i64 %10, ptr %12, align 8, !tbaa !60
  ret void
}

; Function Attrs: inlinehint nounwind uwtable
define internal ptr @mi_block_nextx(ptr noundef %0, ptr noundef %1, ptr noundef %2) #1 {
  %4 = alloca ptr, align 8
  %5 = alloca ptr, align 8
  %6 = alloca ptr, align 8
  %7 = alloca ptr, align 8
  store ptr %0, ptr %4, align 8, !tbaa !57
  store ptr %1, ptr %5, align 8, !tbaa !42
  store ptr %2, ptr %6, align 8, !tbaa !58
  call void @llvm.lifetime.start.p0(i64 8, ptr %7) #6
  %8 = load ptr, ptr %5, align 8, !tbaa !42
  %9 = getelementptr inbounds nuw %struct.mi_block_s, ptr %8, i32 0, i32 0
  %10 = load i64, ptr %9, align 8, !tbaa !60
  %11 = inttoptr i64 %10 to ptr
  store ptr %11, ptr %7, align 8, !tbaa !42
  %12 = load ptr, ptr %7, align 8, !tbaa !42
  call void @llvm.lifetime.end.p0(i64 8, ptr %7) #6
  ret ptr %12
}

; Function Attrs: inlinehint nounwind uwtable
define internal void @_mi_memzero_aligned(ptr noundef %0, i64 noundef %1) #1 {
  %3 = alloca ptr, align 8
  %4 = alloca i64, align 8
  %5 = alloca ptr, align 8
  store ptr %0, ptr %3, align 8, !tbaa !57
  store i64 %1, ptr %4, align 8, !tbaa !3
  call void @llvm.lifetime.start.p0(i64 8, ptr %5) #6
  %6 = load ptr, ptr %3, align 8, !tbaa !57
  call void @llvm.assume(i1 true) [ "align"(ptr %6, i64 8) ]
  store ptr %6, ptr %5, align 8, !tbaa !57
  %7 = load ptr, ptr %5, align 8, !tbaa !57
  %8 = load i64, ptr %4, align 8, !tbaa !3
  call void @_mi_memzero(ptr noundef %7, i64 noundef %8) #10
  call void @llvm.lifetime.end.p0(i64 8, ptr %5) #6
  ret void
}

; Function Attrs: inlinehint nounwind uwtable
define internal i64 @mi_page_usable_block_size(ptr noundef %0) #1 {
  %2 = alloca ptr, align 8
  store ptr %0, ptr %2, align 8, !tbaa !17
  %3 = load ptr, ptr %2, align 8, !tbaa !17
  %4 = call i64 @mi_page_block_size(ptr noundef %3) #10
  %5 = sub i64 %4, 0
  ret i64 %5
}

; Function Attrs: inlinehint nounwind uwtable
define internal zeroext i1 @mi_page_is_huge(ptr noundef %0) #1 {
  %2 = alloca ptr, align 8
  store ptr %0, ptr %2, align 8, !tbaa !17
  %3 = load ptr, ptr %2, align 8, !tbaa !17
  %4 = getelementptr inbounds nuw %struct.mi_page_s, ptr %3, i32 0, i32 2
  %5 = load i8, ptr %4, align 8
  %6 = lshr i8 %5, 2
  %7 = and i8 %6, 1
  %8 = icmp ne i8 %7, 0
  ret i1 %8
}

; Function Attrs: nounwind uwtable
define hidden zeroext i1 @_mi_heap_delayed_free_partial(ptr noundef %0) #0 {
  %2 = alloca ptr, align 8
  %3 = alloca ptr, align 8
  %4 = alloca ptr, align 8
  %5 = alloca ptr, align 8
  %6 = alloca i8, align 1
  %7 = alloca i8, align 1
  %8 = alloca ptr, align 8
  %9 = alloca ptr, align 8
  %10 = alloca ptr, align 8
  %11 = alloca ptr, align 8
  %12 = alloca i8, align 1
  store ptr %0, ptr %2, align 8, !tbaa !12
  call void @llvm.lifetime.start.p0(i64 8, ptr %3) #6
  %13 = load ptr, ptr %2, align 8, !tbaa !12
  %14 = getelementptr inbounds nuw %struct.mi_heap_s, ptr %13, i32 0, i32 1
  %15 = load atomic i64, ptr %14 monotonic, align 8
  store i64 %15, ptr %4, align 8
  %16 = load ptr, ptr %4, align 8, !tbaa !42
  store ptr %16, ptr %3, align 8, !tbaa !42
  br label %17

17:                                               ; preds = %36, %1
  %18 = load ptr, ptr %3, align 8, !tbaa !42
  %19 = icmp ne ptr %18, null
  br i1 %19, label %20, label %34

20:                                               ; preds = %17
  %21 = load ptr, ptr %2, align 8, !tbaa !12
  %22 = getelementptr inbounds nuw %struct.mi_heap_s, ptr %21, i32 0, i32 1
  store ptr null, ptr %5, align 8, !tbaa !42
  %23 = load i64, ptr %3, align 8
  %24 = load i64, ptr %5, align 8
  %25 = cmpxchg weak ptr %22, i64 %23, i64 %24 acq_rel acquire, align 8
  %26 = extractvalue { i64, i1 } %25, 0
  %27 = extractvalue { i64, i1 } %25, 1
  br i1 %27, label %29, label %28

28:                                               ; preds = %20
  store i64 %26, ptr %3, align 8
  br label %29

29:                                               ; preds = %28, %20
  %30 = zext i1 %27 to i8
  store i8 %30, ptr %6, align 1, !tbaa !29
  %31 = load i8, ptr %6, align 1, !tbaa !29, !range !31, !noundef !32
  %32 = trunc i8 %31 to i1
  %33 = xor i1 %32, true
  br label %34

34:                                               ; preds = %29, %17
  %35 = phi i1 [ false, %17 ], [ %33, %29 ]
  br i1 %35, label %36, label %37

36:                                               ; preds = %34
  br label %17, !llvm.loop !54

37:                                               ; preds = %34
  call void @llvm.lifetime.start.p0(i64 1, ptr %7) #6
  store i8 1, ptr %7, align 1, !tbaa !29
  br label %38

38:                                               ; preds = %78, %37
  %39 = load ptr, ptr %3, align 8, !tbaa !42
  %40 = icmp ne ptr %39, null
  br i1 %40, label %41, label %80

41:                                               ; preds = %38
  call void @llvm.lifetime.start.p0(i64 8, ptr %8) #6
  %42 = load ptr, ptr %2, align 8, !tbaa !12
  %43 = load ptr, ptr %3, align 8, !tbaa !42
  %44 = load ptr, ptr %2, align 8, !tbaa !12
  %45 = getelementptr inbounds nuw %struct.mi_heap_s, ptr %44, i32 0, i32 5
  %46 = getelementptr inbounds [2 x i64], ptr %45, i64 0, i64 0
  %47 = call ptr @mi_block_nextx(ptr noundef %42, ptr noundef %43, ptr noundef %46) #10
  store ptr %47, ptr %8, align 8, !tbaa !42
  %48 = load ptr, ptr %3, align 8, !tbaa !42
  %49 = call zeroext i1 @_mi_free_delayed_block(ptr noundef %48) #10
  br i1 %49, label %78, label %50

50:                                               ; preds = %41
  store i8 0, ptr %7, align 1, !tbaa !29
  call void @llvm.lifetime.start.p0(i64 8, ptr %9) #6
  %51 = load ptr, ptr %2, align 8, !tbaa !12
  %52 = getelementptr inbounds nuw %struct.mi_heap_s, ptr %51, i32 0, i32 1
  %53 = load atomic i64, ptr %52 monotonic, align 8
  store i64 %53, ptr %10, align 8
  %54 = load ptr, ptr %10, align 8, !tbaa !42
  store ptr %54, ptr %9, align 8, !tbaa !42
  br label %55

55:                                               ; preds = %72, %50
  %56 = load ptr, ptr %2, align 8, !tbaa !12
  %57 = load ptr, ptr %3, align 8, !tbaa !42
  %58 = load ptr, ptr %9, align 8, !tbaa !42
  %59 = load ptr, ptr %2, align 8, !tbaa !12
  %60 = getelementptr inbounds nuw %struct.mi_heap_s, ptr %59, i32 0, i32 5
  %61 = getelementptr inbounds [2 x i64], ptr %60, i64 0, i64 0
  call void @mi_block_set_nextx(ptr noundef %56, ptr noundef %57, ptr noundef %58, ptr noundef %61) #10
  br label %62

62:                                               ; preds = %55
  %63 = load ptr, ptr %2, align 8, !tbaa !12
  %64 = getelementptr inbounds nuw %struct.mi_heap_s, ptr %63, i32 0, i32 1
  %65 = load ptr, ptr %3, align 8, !tbaa !42
  store ptr %65, ptr %11, align 8, !tbaa !42
  %66 = load i64, ptr %9, align 8
  %67 = load i64, ptr %11, align 8
  %68 = cmpxchg weak ptr %64, i64 %66, i64 %67 release monotonic, align 8
  %69 = extractvalue { i64, i1 } %68, 0
  %70 = extractvalue { i64, i1 } %68, 1
  br i1 %70, label %72, label %71

71:                                               ; preds = %62
  store i64 %69, ptr %9, align 8
  br label %72

72:                                               ; preds = %71, %62
  %73 = zext i1 %70 to i8
  store i8 %73, ptr %12, align 1, !tbaa !29
  %74 = load i8, ptr %12, align 1, !tbaa !29, !range !31, !noundef !32
  %75 = trunc i8 %74 to i1
  %76 = xor i1 %75, true
  br i1 %76, label %55, label %77, !llvm.loop !55

77:                                               ; preds = %72
  call void @llvm.lifetime.end.p0(i64 8, ptr %9) #6
  br label %78

78:                                               ; preds = %77, %41
  %79 = load ptr, ptr %8, align 8, !tbaa !42
  store ptr %79, ptr %3, align 8, !tbaa !42
  call void @llvm.lifetime.end.p0(i64 8, ptr %8) #6
  br label %38, !llvm.loop !56

80:                                               ; preds = %38
  %81 = load i8, ptr %7, align 1, !tbaa !29, !range !31, !noundef !32
  %82 = trunc i8 %81 to i1
  call void @llvm.lifetime.end.p0(i64 1, ptr %7) #6
  call void @llvm.lifetime.end.p0(i64 8, ptr %3) #6
  ret i1 %82
}

; Function Attrs: nounwind uwtable
define hidden void @_mi_deferred_free(ptr noundef %0, i1 noundef zeroext %1) #0 {
  %3 = alloca ptr, align 8
  %4 = alloca i8, align 1
  %5 = alloca ptr, align 8
  store ptr %0, ptr %3, align 8, !tbaa !12
  %6 = zext i1 %1 to i8
  store i8 %6, ptr %4, align 1, !tbaa !29
  %7 = load ptr, ptr %3, align 8, !tbaa !12
  %8 = getelementptr inbounds nuw %struct.mi_heap_s, ptr %7, i32 0, i32 0
  %9 = load ptr, ptr %8, align 8, !tbaa !62
  %10 = getelementptr inbounds nuw %struct.mi_tld_s, ptr %9, i32 0, i32 0
  %11 = load i64, ptr %10, align 8, !tbaa !70
  %12 = add i64 %11, 1
  store i64 %12, ptr %10, align 8, !tbaa !70
  %13 = load volatile ptr, ptr @deferred_free, align 8, !tbaa !57
  %14 = icmp ne ptr %13, null
  br i1 %14, label %15, label %41

15:                                               ; preds = %2
  %16 = load ptr, ptr %3, align 8, !tbaa !12
  %17 = getelementptr inbounds nuw %struct.mi_heap_s, ptr %16, i32 0, i32 0
  %18 = load ptr, ptr %17, align 8, !tbaa !62
  %19 = getelementptr inbounds nuw %struct.mi_tld_s, ptr %18, i32 0, i32 1
  %20 = load i8, ptr %19, align 8, !tbaa !79, !range !31, !noundef !32
  %21 = trunc i8 %20 to i1
  br i1 %21, label %41, label %22

22:                                               ; preds = %15
  %23 = load ptr, ptr %3, align 8, !tbaa !12
  %24 = getelementptr inbounds nuw %struct.mi_heap_s, ptr %23, i32 0, i32 0
  %25 = load ptr, ptr %24, align 8, !tbaa !62
  %26 = getelementptr inbounds nuw %struct.mi_tld_s, ptr %25, i32 0, i32 1
  store i8 1, ptr %26, align 8, !tbaa !79
  %27 = load volatile ptr, ptr @deferred_free, align 8, !tbaa !57
  %28 = load i8, ptr %4, align 1, !tbaa !29, !range !31, !noundef !32
  %29 = trunc i8 %28 to i1
  %30 = load ptr, ptr %3, align 8, !tbaa !12
  %31 = getelementptr inbounds nuw %struct.mi_heap_s, ptr %30, i32 0, i32 0
  %32 = load ptr, ptr %31, align 8, !tbaa !62
  %33 = getelementptr inbounds nuw %struct.mi_tld_s, ptr %32, i32 0, i32 0
  %34 = load i64, ptr %33, align 8, !tbaa !70
  %35 = load atomic i64, ptr @deferred_arg monotonic, align 8
  store i64 %35, ptr %5, align 8
  %36 = load ptr, ptr %5, align 8, !tbaa !57
  call void %27(i1 noundef zeroext %29, i64 noundef %34, ptr noundef %36) #10
  %37 = load ptr, ptr %3, align 8, !tbaa !12
  %38 = getelementptr inbounds nuw %struct.mi_heap_s, ptr %37, i32 0, i32 0
  %39 = load ptr, ptr %38, align 8, !tbaa !62
  %40 = getelementptr inbounds nuw %struct.mi_tld_s, ptr %39, i32 0, i32 1
  store i8 0, ptr %40, align 8, !tbaa !79
  br label %41

41:                                               ; preds = %22, %15, %2
  ret void
}

; Function Attrs: inlinehint nounwind uwtable
define internal zeroext i1 @mi_heap_is_initialized(ptr noundef %0) #1 {
  %2 = alloca ptr, align 8
  store ptr %0, ptr %2, align 8, !tbaa !12
  %3 = load ptr, ptr %2, align 8, !tbaa !12
  %4 = icmp ne ptr %3, null
  br i1 %4, label %5, label %8

5:                                                ; preds = %1
  %6 = load ptr, ptr %2, align 8, !tbaa !12
  %7 = icmp ne ptr %6, @_mi_heap_empty
  br label %8

8:                                                ; preds = %5, %1
  %9 = phi i1 [ false, %1 ], [ %7, %5 ]
  ret i1 %9
}

; Function Attrs: nounwind uwtable
define hidden noalias ptr @_mi_malloc_generic(ptr noundef %0, i64 noundef %1, i1 noundef zeroext %2, i64 noundef %3) #0 {
  %5 = alloca ptr, align 8
  %6 = alloca ptr, align 8
  %7 = alloca i64, align 8
  %8 = alloca i8, align 1
  %9 = alloca i64, align 8
  %10 = alloca ptr, align 8
  %11 = alloca i64, align 8
  %12 = alloca i32, align 4
  %13 = alloca ptr, align 8
  store ptr %0, ptr %6, align 8, !tbaa !12
  store i64 %1, ptr %7, align 8, !tbaa !3
  %14 = zext i1 %2 to i8
  store i8 %14, ptr %8, align 1, !tbaa !29
  store i64 %3, ptr %9, align 8, !tbaa !3
  %15 = load ptr, ptr %6, align 8, !tbaa !12
  %16 = call zeroext i1 @mi_heap_is_initialized(ptr noundef %15) #10
  %17 = xor i1 %16, true
  %18 = xor i1 %17, true
  %19 = xor i1 %18, true
  %20 = zext i1 %19 to i32
  %21 = sext i32 %20 to i64
  %22 = call i64 @llvm.expect.i64(i64 %21, i64 0)
  %23 = icmp ne i64 %22, 0
  br i1 %23, label %24, label %37

24:                                               ; preds = %4
  %25 = call ptr @mi_heap_get_default() #10
  store ptr %25, ptr %6, align 8, !tbaa !12
  %26 = load ptr, ptr %6, align 8, !tbaa !12
  %27 = call zeroext i1 @mi_heap_is_initialized(ptr noundef %26) #10
  %28 = xor i1 %27, true
  %29 = xor i1 %28, true
  %30 = xor i1 %29, true
  %31 = zext i1 %30 to i32
  %32 = sext i32 %31 to i64
  %33 = call i64 @llvm.expect.i64(i64 %32, i64 0)
  %34 = icmp ne i64 %33, 0
  br i1 %34, label %35, label %36

35:                                               ; preds = %24
  store ptr null, ptr %5, align 8
  br label %103

36:                                               ; preds = %24
  br label %37

37:                                               ; preds = %36, %4
  %38 = load ptr, ptr %6, align 8, !tbaa !12
  call void @_mi_deferred_free(ptr noundef %38, i1 noundef zeroext false) #10
  %39 = load ptr, ptr %6, align 8, !tbaa !12
  %40 = call zeroext i1 @_mi_heap_delayed_free_partial(ptr noundef %39) #10
  call void @llvm.lifetime.start.p0(i64 8, ptr %10) #6
  %41 = load ptr, ptr %6, align 8, !tbaa !12
  %42 = load i64, ptr %7, align 8, !tbaa !3
  %43 = load i64, ptr %9, align 8, !tbaa !3
  %44 = call ptr @mi_find_page(ptr noundef %41, i64 noundef %42, i64 noundef %43) #10
  store ptr %44, ptr %10, align 8, !tbaa !17
  %45 = load ptr, ptr %10, align 8, !tbaa !17
  %46 = icmp eq ptr %45, null
  %47 = xor i1 %46, true
  %48 = xor i1 %47, true
  %49 = zext i1 %48 to i32
  %50 = sext i32 %49 to i64
  %51 = call i64 @llvm.expect.i64(i64 %50, i64 0)
  %52 = icmp ne i64 %51, 0
  br i1 %52, label %53, label %59

53:                                               ; preds = %37
  %54 = load ptr, ptr %6, align 8, !tbaa !12
  call void @mi_heap_collect(ptr noundef %54, i1 noundef zeroext true) #10
  %55 = load ptr, ptr %6, align 8, !tbaa !12
  %56 = load i64, ptr %7, align 8, !tbaa !3
  %57 = load i64, ptr %9, align 8, !tbaa !3
  %58 = call ptr @mi_find_page(ptr noundef %55, i64 noundef %56, i64 noundef %57) #10
  store ptr %58, ptr %10, align 8, !tbaa !17
  br label %59

59:                                               ; preds = %53, %37
  %60 = load ptr, ptr %10, align 8, !tbaa !17
  %61 = icmp eq ptr %60, null
  %62 = xor i1 %61, true
  %63 = xor i1 %62, true
  %64 = zext i1 %63 to i32
  %65 = sext i32 %64 to i64
  %66 = call i64 @llvm.expect.i64(i64 %65, i64 0)
  %67 = icmp ne i64 %66, 0
  br i1 %67, label %68, label %72

68:                                               ; preds = %59
  call void @llvm.lifetime.start.p0(i64 8, ptr %11) #6
  %69 = load i64, ptr %7, align 8, !tbaa !3
  %70 = sub i64 %69, 0
  store i64 %70, ptr %11, align 8, !tbaa !3
  %71 = load i64, ptr %11, align 8, !tbaa !3
  call void (i32, ptr, ...) @_mi_error_message(i32 noundef 12, ptr noundef @.str, i64 noundef %71) #10
  store ptr null, ptr %5, align 8
  store i32 1, ptr %12, align 4
  call void @llvm.lifetime.end.p0(i64 8, ptr %11) #6
  br label %102

72:                                               ; preds = %59
  %73 = load i8, ptr %8, align 1, !tbaa !29, !range !31, !noundef !32
  %74 = trunc i8 %73 to i1
  br i1 %74, label %75, label %78

75:                                               ; preds = %72
  %76 = load ptr, ptr %10, align 8, !tbaa !17
  %77 = call zeroext i1 @mi_page_is_huge(ptr noundef %76) #10
  br label %78

78:                                               ; preds = %75, %72
  %79 = phi i1 [ false, %72 ], [ %77, %75 ]
  %80 = xor i1 %79, true
  %81 = xor i1 %80, true
  %82 = zext i1 %81 to i32
  %83 = sext i32 %82 to i64
  %84 = call i64 @llvm.expect.i64(i64 %83, i64 0)
  %85 = icmp ne i64 %84, 0
  br i1 %85, label %86, label %95

86:                                               ; preds = %78
  call void @llvm.lifetime.start.p0(i64 8, ptr %13) #6
  %87 = load ptr, ptr %6, align 8, !tbaa !12
  %88 = load ptr, ptr %10, align 8, !tbaa !17
  %89 = load i64, ptr %7, align 8, !tbaa !3
  %90 = call ptr @_mi_page_malloc(ptr noundef %87, ptr noundef %88, i64 noundef %89) #10
  store ptr %90, ptr %13, align 8, !tbaa !57
  %91 = load ptr, ptr %13, align 8, !tbaa !57
  %92 = load ptr, ptr %10, align 8, !tbaa !17
  %93 = call i64 @mi_page_usable_block_size(ptr noundef %92) #10
  call void @_mi_memzero_aligned(ptr noundef %91, i64 noundef %93) #10
  %94 = load ptr, ptr %13, align 8, !tbaa !57
  store ptr %94, ptr %5, align 8
  store i32 1, ptr %12, align 4
  call void @llvm.lifetime.end.p0(i64 8, ptr %13) #6
  br label %102

95:                                               ; preds = %78
  %96 = load ptr, ptr %6, align 8, !tbaa !12
  %97 = load ptr, ptr %10, align 8, !tbaa !17
  %98 = load i64, ptr %7, align 8, !tbaa !3
  %99 = load i8, ptr %8, align 1, !tbaa !29, !range !31, !noundef !32
  %100 = trunc i8 %99 to i1
  %101 = call ptr @_mi_page_malloc_zero(ptr noundef %96, ptr noundef %97, i64 noundef %98, i1 noundef zeroext %100) #10
  store ptr %101, ptr %5, align 8
  store i32 1, ptr %12, align 4
  br label %102

102:                                              ; preds = %95, %86, %68
  call void @llvm.lifetime.end.p0(i64 8, ptr %10) #6
  br label %103

103:                                              ; preds = %102, %35
  %104 = load ptr, ptr %5, align 8
  ret ptr %104
}