; Function Attrs: nounwind uwtable
define hidden noalias ptr @_mi_malloc_generic(ptr noundef %0, i64 noundef %1, i1 noundef zeroext %2, i64 noundef %3) local_unnamed_addr #1 {
  %5 = icmp ne ptr %0, null
  %6 = icmp ne ptr %0, @_mi_heap_empty
  %7 = and i1 %5, %6
  br i1 %7, label %13, label %8, !prof !28

8:                                                ; preds = %4
  %9 = tail call ptr @mi_heap_get_default() #13
  %10 = icmp ne ptr %9, null
  %11 = icmp ne ptr %9, @_mi_heap_empty
  %12 = and i1 %10, %11
  br i1 %12, label %13, label %59, !prof !28

13:                                               ; preds = %8, %4
  %.027 = phi ptr [ %9, %8 ], [ %0, %4 ]
  %14 = load ptr, ptr %.027, align 8, !tbaa !49
  %15 = load i64, ptr %14, align 8, !tbaa !54
  %16 = add i64 %15, 1
  store i64 %16, ptr %14, align 8, !tbaa !54
  %17 = load volatile ptr, ptr @deferred_free, align 8, !tbaa !63
  %.not.i = icmp eq ptr %17, null
  br i1 %.not.i, label %_mi_deferred_free.exit, label %18

18:                                               ; preds = %13
  %19 = getelementptr inbounds nuw i8, ptr %14, i64 8
  %20 = load i8, ptr %19, align 8, !tbaa !64, !range !65, !noundef !66
  %21 = trunc nuw i8 %20 to i1
  br i1 %21, label %_mi_deferred_free.exit, label %22

22:                                               ; preds = %18
  store i8 1, ptr %19, align 8, !tbaa !64
  %23 = load volatile ptr, ptr @deferred_free, align 8, !tbaa !63
  %24 = load atomic i64, ptr @deferred_arg monotonic, align 8
  %25 = inttoptr i64 %24 to ptr
  tail call void %23(i1 noundef zeroext false, i64 noundef %16, ptr noundef %25) #13
  %26 = load ptr, ptr %.027, align 8, !tbaa !49
  %27 = getelementptr inbounds nuw i8, ptr %26, i64 8
  store i8 0, ptr %27, align 8, !tbaa !64
  br label %_mi_deferred_free.exit

_mi_deferred_free.exit:                           ; preds = %13, %18, %22
  %28 = getelementptr inbounds nuw i8, ptr %.027, i64 8
  %29 = load atomic i64, ptr %28 monotonic, align 8
  %.old1.not.i = icmp eq i64 %29, 0
  br i1 %.old1.not.i, label %_mi_heap_delayed_free_partial.exit, label %.preheader.preheader.i

.preheader.preheader.i:                           ; preds = %_mi_deferred_free.exit
  %30 = inttoptr i64 %29 to ptr
  br label %.preheader.i

.preheader.i:                                     ; preds = %.preheader.i, %.preheader.preheader.i
  %.0.i = phi ptr [ %.1.i, %.preheader.i ], [ %30, %.preheader.preheader.i ]
  %31 = ptrtoint ptr %.0.i to i64
  %32 = cmpxchg weak ptr %28, i64 %31, i64 0 acq_rel acquire, align 8
  %33 = extractvalue { i64, i1 } %32, 1
  %34 = extractvalue { i64, i1 } %32, 0
  %35 = inttoptr i64 %34 to ptr
  %.1.i = select i1 %33, ptr %.0.i, ptr %35
  %36 = icmp eq ptr %.1.i, null
  %or.cond.not.i = select i1 %33, i1 true, i1 %36
  br i1 %or.cond.not.i, label %.critedge.i, label %.preheader.i, !llvm.loop !45

.critedge.i:                                      ; preds = %.preheader.i
  br i1 %36, label %_mi_heap_delayed_free_partial.exit, label %.lr.ph.i

.lr.ph.i:                                         ; preds = %.critedge.i, %.loopexit.i
  %.333.i = phi ptr [ %37, %.loopexit.i ], [ %.1.i, %.critedge.i ]
  %.3.val.i = load i64, ptr %.333.i, align 8, !tbaa !31
  %37 = inttoptr i64 %.3.val.i to ptr
  %38 = tail call zeroext i1 @_mi_free_delayed_block(ptr noundef nonnull %.333.i) #13
  br i1 %38, label %.loopexit.i, label %39

39:                                               ; preds = %.lr.ph.i
  %40 = load atomic i64, ptr %28 monotonic, align 8
  %41 = ptrtoint ptr %.333.i to i64
  br label %42

42:                                               ; preds = %42, %39
  %.027.in.i = phi i64 [ %40, %39 ], [ %45, %42 ]
  store i64 %.027.in.i, ptr %.333.i, align 8, !tbaa !31
  %43 = cmpxchg weak ptr %28, i64 %.027.in.i, i64 %41 release monotonic, align 8
  %44 = extractvalue { i64, i1 } %43, 1
  %45 = extractvalue { i64, i1 } %43, 0
  br i1 %44, label %.loopexit.i, label %42, !llvm.loop !46

.loopexit.i:                                      ; preds = %42, %.lr.ph.i
  %.not.i31 = icmp eq i64 %.3.val.i, 0
  br i1 %.not.i31, label %_mi_heap_delayed_free_partial.exit, label %.lr.ph.i, !llvm.loop !47

_mi_heap_delayed_free_partial.exit:               ; preds = %.loopexit.i, %_mi_deferred_free.exit, %.critedge.i
  %46 = tail call fastcc ptr @mi_find_page(ptr noundef nonnull %.027, i64 noundef %1, i64 noundef %3) #14
  %47 = icmp eq ptr %46, null
  br i1 %47, label %48, label %.thread, !prof !27

48:                                               ; preds = %_mi_heap_delayed_free_partial.exit
  tail call void @mi_heap_collect(ptr noundef nonnull %.027, i1 noundef zeroext true) #13
  %49 = tail call fastcc ptr @mi_find_page(ptr noundef nonnull %.027, i64 noundef %1, i64 noundef %3) #14
  %50 = icmp eq ptr %49, null
  br i1 %50, label %51, label %.thread, !prof !67

51:                                               ; preds = %48
  tail call void (i32, ptr, ...) @_mi_error_message(i32 noundef 12, ptr noundef nonnull @.str, i64 noundef %1) #13
  br label %59

.thread:                                          ; preds = %_mi_heap_delayed_free_partial.exit, %48
  %.02833 = phi ptr [ %49, %48 ], [ %46, %_mi_heap_delayed_free_partial.exit ]
  br i1 %2, label %52, label %.critedge

52:                                               ; preds = %.thread
  %53 = getelementptr i8, ptr %.02833, i64 8
  %.028.val = load i8, ptr %53, align 8
  %54 = and i8 %.028.val, 4
  %.not = icmp eq i8 %54, 0
  br i1 %.not, label %.critedge, label %55, !prof !28

55:                                               ; preds = %52
  %56 = tail call ptr @_mi_page_malloc(ptr noundef nonnull %.027, ptr noundef nonnull %.02833, i64 noundef %1) #13
  %57 = getelementptr i8, ptr %.02833, i64 40
  %.028.val30 = load i64, ptr %57, align 8, !tbaa !38
  call void @llvm.assume(i1 true) [ "align"(ptr %56, i64 8) ]
  tail call void @llvm.memset.p0.i64(ptr align 8 %56, i8 0, i64 %.028.val30, i1 false)
  br label %59

.critedge:                                        ; preds = %.thread, %52
  %58 = tail call ptr @_mi_page_malloc_zero(ptr noundef nonnull %.027, ptr noundef nonnull %.02833, i64 noundef %1, i1 noundef zeroext %2) #13
  br label %59

59:                                               ; preds = %51, %55, %.critedge, %8
  %.0 = phi ptr [ null, %8 ], [ null, %51 ], [ %56, %55 ], [ %58, %.critedge ]
  ret ptr %.0
}